target datalayout = "e-m:e-p270:32:32-p271:32:32-p272:64:64-i64:64-i128:128-f80:128-n8:16:32:64-S128"
target triple = "x86_64-pc-linux-gnu"

%struct.ma_context = type { %struct.ma_backend_callbacks, i32, ptr, %struct.ma_log, i32, i64, ptr, %struct.ma_allocation_callbacks, %union.pthread_mutex_t, %union.pthread_mutex_t, i32, i32, i32, ptr, %union.anon.36, %union.anon.41 }
%struct.ma_backend_callbacks = type { ptr, ptr, ptr, ptr, ptr, ptr, ptr, ptr, ptr, ptr, ptr, ptr, ptr }
%struct.ma_log = type { [4 x %struct.ma_log_callback], i32, %struct.ma_allocation_callbacks, %union.pthread_mutex_t }
%struct.ma_log_callback = type { ptr, ptr }
%struct.ma_allocation_callbacks = type { ptr, ptr, ptr, ptr }
%union.anon.36 = type { %struct.anon.37 }
%struct.anon.37 = type { ptr, ptr, ptr, ptr, ptr, ptr, ptr, ptr, ptr, ptr, ptr, ptr, ptr, ptr, ptr, ptr, ptr, ptr, ptr, ptr, ptr, ptr, ptr, ptr, ptr, ptr, ptr, ptr, ptr, ptr, ptr, ptr, ptr, ptr, ptr, ptr, ptr, ptr, ptr, ptr, ptr, ptr, ptr, ptr, ptr, ptr, ptr, ptr, ptr, ptr, ptr, ptr, ptr, ptr, ptr, ptr, ptr, ptr, ptr, ptr, ptr, ptr, ptr, ptr, ptr, ptr, ptr, %union.pthread_mutex_t, i32 }
%union.anon.41 = type { %struct.anon.42 }
%struct.anon.42 = type { i32 }
%union.ma_device_id = type { %union.anon.17 }
%union.anon.17 = type { ptr, [248 x i8] }
%union.pthread_mutex_t = type { %struct.__pthread_mutex_s }
%struct.__pthread_mutex_s = type { i32, i32, i32, i32, i32, i16, i16, %struct.__pthread_internal_list }
%struct.__pthread_internal_list = type { ptr, ptr }
%struct.ma_device_info = type { %union.ma_device_id, [256 x i8], i32, i32, [64 x %struct.anon.18] }
%struct.anon.18 = type { i32, i32, i32, i32 }

@g_maStandardSampleRatePriorities = internal global [14 x i32] [i32 48000, i32 44100, i32 32000, i32 24000, i32 22050, i32 88200, i32 96000, i32 176400, i32 192000, i32 16000, i32 11025, i32 8000, i32 352800, i32 384000], align 16

; Function Attrs: alwaysinline nounwind uwtable
define internal i32 @ma_is_standard_sample_rate(i32 noundef %0) #7 {
  %2 = alloca i32, align 4
  %3 = alloca i32, align 4
  %4 = alloca i32, align 4
  %5 = alloca i32, align 4
  store i32 %0, ptr %3, align 4
  call void @llvm.lifetime.start.p0(i64 4, ptr %4) #21
  store i32 0, ptr %4, align 4
  br label %6

6:                                                ; preds = %19, %1
  %7 = load i32, ptr %4, align 4
  %8 = zext i32 %7 to i64
  %9 = icmp ult i64 %8, 14
  br i1 %9, label %10, label %22

10:                                               ; preds = %6
  %11 = load i32, ptr %4, align 4
  %12 = zext i32 %11 to i64
  %13 = getelementptr inbounds nuw [14 x i32], ptr @g_maStandardSampleRatePriorities, i64 0, i64 %12
  %14 = load i32, ptr %13, align 4
  %15 = load i32, ptr %3, align 4
  %16 = icmp eq i32 %14, %15
  br i1 %16, label %17, label %18

17:                                               ; preds = %10
  store i32 1, ptr %2, align 4
  store i32 1, ptr %5, align 4
  br label %23

18:                                               ; preds = %10
  br label %19

19:                                               ; preds = %18
  %20 = load i32, ptr %4, align 4
  %21 = add i32 %20, 1
  store i32 %21, ptr %4, align 4
  br label %6

22:                                               ; preds = %6
  store i32 0, ptr %2, align 4
  store i32 1, ptr %5, align 4
  br label %23

23:                                               ; preds = %22, %17
  call void @llvm.lifetime.end.p0(i64 4, ptr %4) #21
  %24 = load i32, ptr %2, align 4
  ret i32 %24
}

; Function Attrs: nounwind uwtable
define internal void @ma_context_test_rate_and_add_native_data_format__alsa(ptr noundef %0, ptr noundef %1, ptr noundef %2, i32 noundef %3, i32 noundef %4, i32 noundef %5, i32 noundef %6, ptr noundef %7) #0 {
  %9 = alloca ptr, align 8
  %10 = alloca ptr, align 8
  %11 = alloca ptr, align 8
  %12 = alloca i32, align 4
  %13 = alloca i32, align 4
  %14 = alloca i32, align 4
  %15 = alloca i32, align 4
  %16 = alloca ptr, align 8
  store ptr %0, ptr %9, align 8
  store ptr %1, ptr %10, align 8
  store ptr %2, ptr %11, align 8
  store i32 %3, ptr %12, align 4
  store i32 %4, ptr %13, align 4
  store i32 %5, ptr %14, align 4
  store i32 %6, ptr %15, align 4
  store ptr %7, ptr %16, align 8
  %17 = load ptr, ptr %16, align 8
  %18 = getelementptr inbounds nuw %struct.ma_device_info, ptr %17, i32 0, i32 3
  %19 = load i32, ptr %18, align 4
  %20 = zext i32 %19 to i64
  %21 = icmp ult i64 %20, 64
  br i1 %21, label %22, label %73

22:                                               ; preds = %8
  %23 = load ptr, ptr %9, align 8
  %24 = getelementptr inbounds nuw %struct.ma_context, ptr %23, i32 0, i32 14
  %25 = getelementptr inbounds nuw %struct.anon.37, ptr %24, i32 0, i32 29
  %26 = load ptr, ptr %25, align 8
  %27 = load ptr, ptr %10, align 8
  %28 = load ptr, ptr %11, align 8
  %29 = load i32, ptr %14, align 4
  %30 = call i32 %26(ptr noundef %27, ptr noundef %28, i32 noundef %29, i32 noundef 0)
  %31 = icmp eq i32 %30, 0
  br i1 %31, label %32, label %73

32:                                               ; preds = %22
  %33 = load i32, ptr %12, align 4
  %34 = load ptr, ptr %16, align 8
  %35 = getelementptr inbounds nuw %struct.ma_device_info, ptr %34, i32 0, i32 4
  %36 = load ptr, ptr %16, align 8
  %37 = getelementptr inbounds nuw %struct.ma_device_info, ptr %36, i32 0, i32 3
  %38 = load i32, ptr %37, align 4
  %39 = zext i32 %38 to i64
  %40 = getelementptr inbounds nuw [64 x %struct.anon.18], ptr %35, i64 0, i64 %39
  %41 = getelementptr inbounds nuw %struct.anon.18, ptr %40, i32 0, i32 0
  store i32 %33, ptr %41, align 8
  %42 = load i32, ptr %13, align 4
  %43 = load ptr, ptr %16, align 8
  %44 = getelementptr inbounds nuw %struct.ma_device_info, ptr %43, i32 0, i32 4
  %45 = load ptr, ptr %16, align 8
  %46 = getelementptr inbounds nuw %struct.ma_device_info, ptr %45, i32 0, i32 3
  %47 = load i32, ptr %46, align 4
  %48 = zext i32 %47 to i64
  %49 = getelementptr inbounds nuw [64 x %struct.anon.18], ptr %44, i64 0, i64 %48
  %50 = getelementptr inbounds nuw %struct.anon.18, ptr %49, i32 0, i32 1
  store i32 %42, ptr %50, align 4
  %51 = load i32, ptr %14, align 4
  %52 = load ptr, ptr %16, align 8
  %53 = getelementptr inbounds nuw %struct.ma_device_info, ptr %52, i32 0, i32 4
  %54 = load ptr, ptr %16, align 8
  %55 = getelementptr inbounds nuw %struct.ma_device_info, ptr %54, i32 0, i32 3
  %56 = load i32, ptr %55, align 4
  %57 = zext i32 %56 to i64
  %58 = getelementptr inbounds nuw [64 x %struct.anon.18], ptr %53, i64 0, i64 %57
  %59 = getelementptr inbounds nuw %struct.anon.18, ptr %58, i32 0, i32 2
  store i32 %51, ptr %59, align 8
  %60 = load i32, ptr %15, align 4
  %61 = load ptr, ptr %16, align 8
  %62 = getelementptr inbounds nuw %struct.ma_device_info, ptr %61, i32 0, i32 4
  %63 = load ptr, ptr %16, align 8
  %64 = getelementptr inbounds nuw %struct.ma_device_info, ptr %63, i32 0, i32 3
  %65 = load i32, ptr %64, align 4
  %66 = zext i32 %65 to i64
  %67 = getelementptr inbounds nuw [64 x %struct.anon.18], ptr %62, i64 0, i64 %66
  %68 = getelementptr inbounds nuw %struct.anon.18, ptr %67, i32 0, i32 3
  store i32 %60, ptr %68, align 4
  %69 = load ptr, ptr %16, align 8
  %70 = getelementptr inbounds nuw %struct.ma_device_info, ptr %69, i32 0, i32 3
  %71 = load i32, ptr %70, align 4
  %72 = add i32 %71, 1
  store i32 %72, ptr %70, align 4
  br label %73

73:                                               ; preds = %32, %22, %8
  ret void
}

; Function Attrs: nounwind uwtable
define internal void @ma_context_iterate_rates_and_add_native_data_format__alsa(ptr noundef %0, ptr noundef %1, ptr noundef %2, i32 noundef %3, i32 noundef %4, i32 noundef %5, ptr noundef %6) #0 {
  %8 = alloca ptr, align 8
  %9 = alloca ptr, align 8
  %10 = alloca ptr, align 8
  %11 = alloca i32, align 4
  %12 = alloca i32, align 4
  %13 = alloca i32, align 4
  %14 = alloca ptr, align 8
  %15 = alloca i32, align 4
  %16 = alloca i32, align 4
  %17 = alloca i32, align 4
  %18 = alloca i32, align 4
  %19 = alloca i32, align 4
  store ptr %0, ptr %8, align 8
  store ptr %1, ptr %9, align 8
  store ptr %2, ptr %10, align 8
  store i32 %3, ptr %11, align 4
  store i32 %4, ptr %12, align 4
  store i32 %5, ptr %13, align 4
  store ptr %6, ptr %14, align 8
  call void @llvm.lifetime.start.p0(i64 4, ptr %15) #21
  call void @llvm.lifetime.start.p0(i64 4, ptr %16) #21
  call void @llvm.lifetime.start.p0(i64 4, ptr %17) #21
  call void @llvm.lifetime.start.p0(i64 4, ptr %18) #21
  %20 = load ptr, ptr %8, align 8
  %21 = getelementptr inbounds nuw %struct.ma_context, ptr %20, i32 0, i32 14
  %22 = getelementptr inbounds nuw %struct.anon.37, ptr %21, i32 0, i32 22
  %23 = load ptr, ptr %22, align 8
  %24 = load ptr, ptr %10, align 8
  %25 = call i32 %23(ptr noundef %24, ptr noundef %16, ptr noundef %18)
  %26 = load ptr, ptr %8, align 8
  %27 = getelementptr inbounds nuw %struct.ma_context, ptr %26, i32 0, i32 14
  %28 = getelementptr inbounds nuw %struct.anon.37, ptr %27, i32 0, i32 23
  %29 = load ptr, ptr %28, align 8
  %30 = load ptr, ptr %10, align 8
  %31 = call i32 %29(ptr noundef %30, ptr noundef %17, ptr noundef %18)
  %32 = load i32, ptr %16, align 4
  %33 = icmp ult i32 %32, 384000
  br i1 %33, label %34, label %36

34:                                               ; preds = %7
  %35 = load i32, ptr %16, align 4
  br label %37

36:                                               ; preds = %7
  br label %37

37:                                               ; preds = %36, %34
  %38 = phi i32 [ %35, %34 ], [ 384000, %36 ]
  %39 = icmp ugt i32 8000, %38
  br i1 %39, label %40, label %41

40:                                               ; preds = %37
  br label %49

41:                                               ; preds = %37
  %42 = load i32, ptr %16, align 4
  %43 = icmp ult i32 %42, 384000
  br i1 %43, label %44, label %46

44:                                               ; preds = %41
  %45 = load i32, ptr %16, align 4
  br label %47

46:                                               ; preds = %41
  br label %47

47:                                               ; preds = %46, %44
  %48 = phi i32 [ %45, %44 ], [ 384000, %46 ]
  br label %49

49:                                               ; preds = %47, %40
  %50 = phi i32 [ 8000, %40 ], [ %48, %47 ]
  store i32 %50, ptr %16, align 4
  %51 = load i32, ptr %17, align 4
  %52 = icmp ult i32 %51, 384000
  br i1 %52, label %53, label %55

53:                                               ; preds = %49
  %54 = load i32, ptr %17, align 4
  br label %56

55:                                               ; preds = %49
  br label %56

56:                                               ; preds = %55, %53
  %57 = phi i32 [ %54, %53 ], [ 384000, %55 ]
  %58 = icmp ugt i32 8000, %57
  br i1 %58, label %59, label %60

59:                                               ; preds = %56
  br label %68

60:                                               ; preds = %56
  %61 = load i32, ptr %17, align 4
  %62 = icmp ult i32 %61, 384000
  br i1 %62, label %63, label %65

63:                                               ; preds = %60
  %64 = load i32, ptr %17, align 4
  br label %66

65:                                               ; preds = %60
  br label %66

66:                                               ; preds = %65, %63
  %67 = phi i32 [ %64, %63 ], [ 384000, %65 ]
  br label %68

68:                                               ; preds = %66, %59
  %69 = phi i32 [ 8000, %59 ], [ %67, %66 ]
  store i32 %69, ptr %17, align 4
  store i32 0, ptr %15, align 4
  br label %70

70:                                               ; preds = %96, %68
  %71 = load i32, ptr %15, align 4
  %72 = zext i32 %71 to i64
  %73 = icmp ult i64 %72, 14
  br i1 %73, label %74, label %99

74:                                               ; preds = %70
  call void @llvm.lifetime.start.p0(i64 4, ptr %19) #21
  %75 = load i32, ptr %15, align 4
  %76 = zext i32 %75 to i64
  %77 = getelementptr inbounds nuw [14 x i32], ptr @g_maStandardSampleRatePriorities, i64 0, i64 %76
  %78 = load i32, ptr %77, align 4
  store i32 %78, ptr %19, align 4
  %79 = load i32, ptr %19, align 4
  %80 = load i32, ptr %16, align 4
  %81 = icmp uge i32 %79, %80
  br i1 %81, label %82, label %95

82:                                               ; preds = %74
  %83 = load i32, ptr %19, align 4
  %84 = load i32, ptr %17, align 4
  %85 = icmp ule i32 %83, %84
  br i1 %85, label %86, label %95

86:                                               ; preds = %82
  %87 = load ptr, ptr %8, align 8
  %88 = load ptr, ptr %9, align 8
  %89 = load ptr, ptr %10, align 8
  %90 = load i32, ptr %11, align 4
  %91 = load i32, ptr %12, align 4
  %92 = load i32, ptr %19, align 4
  %93 = load i32, ptr %13, align 4
  %94 = load ptr, ptr %14, align 8
  call void @ma_context_test_rate_and_add_native_data_format__alsa(ptr noundef %87, ptr noundef %88, ptr noundef %89, i32 noundef %90, i32 noundef %91, i32 noundef %92, i32 noundef %93, ptr noundef %94)
  br label %95

95:                                               ; preds = %86, %82, %74
  call void @llvm.lifetime.end.p0(i64 4, ptr %19) #21
  br label %96

96:                                               ; preds = %95
  %97 = load i32, ptr %15, align 4
  %98 = add i32 %97, 1
  store i32 %98, ptr %15, align 4
  br label %70

99:                                               ; preds = %70
  %100 = load i32, ptr %16, align 4
  %101 = call i32 @ma_is_standard_sample_rate(i32 noundef %100)
  %102 = icmp ne i32 %101, 0
  br i1 %102, label %112, label %103

103:                                              ; preds = %99
  %104 = load ptr, ptr %8, align 8
  %105 = load ptr, ptr %9, align 8
  %106 = load ptr, ptr %10, align 8
  %107 = load i32, ptr %11, align 4
  %108 = load i32, ptr %12, align 4
  %109 = load i32, ptr %16, align 4
  %110 = load i32, ptr %13, align 4
  %111 = load ptr, ptr %14, align 8
  call void @ma_context_test_rate_and_add_native_data_format__alsa(ptr noundef %104, ptr noundef %105, ptr noundef %106, i32 noundef %107, i32 noundef %108, i32 noundef %109, i32 noundef %110, ptr noundef %111)
  br label %112

112:                                              ; preds = %103, %99
  %113 = load i32, ptr %17, align 4
  %114 = call i32 @ma_is_standard_sample_rate(i32 noundef %113)
  %115 = icmp ne i32 %114, 0
  br i1 %115, label %129, label %116

116:                                              ; preds = %112
  %117 = load i32, ptr %17, align 4
  %118 = load i32, ptr %16, align 4
  %119 = icmp ne i32 %117, %118
  br i1 %119, label %120, label %129

120:                                              ; preds = %116
  %121 = load ptr, ptr %8, align 8
  %122 = load ptr, ptr %9, align 8
  %123 = load ptr, ptr %10, align 8
  %124 = load i32, ptr %11, align 4
  %125 = load i32, ptr %12, align 4
  %126 = load i32, ptr %17, align 4
  %127 = load i32, ptr %13, align 4
  %128 = load ptr, ptr %14, align 8
  call void @ma_context_test_rate_and_add_native_data_format__alsa(ptr noundef %121, ptr noundef %122, ptr noundef %123, i32 noundef %124, i32 noundef %125, i32 noundef %126, i32 noundef %127, ptr noundef %128)
  br label %129

129:                                              ; preds = %120, %116, %112
  call void @llvm.lifetime.end.p0(i64 4, ptr %18) #21
  call void @llvm.lifetime.end.p0(i64 4, ptr %17) #21
  call void @llvm.lifetime.end.p0(i64 4, ptr %16) #21
  call void @llvm.lifetime.end.p0(i64 4, ptr %15) #21
  ret void
}