; Function Attrs: nounwind uwtable
define internal fastcc void @ma_context_iterate_rates_and_add_native_data_format__alsa(ptr noundef readonly captures(none) %0, ptr noundef %1, ptr noundef nonnull %2, i32 noundef %3, i32 noundef %4, ptr noundef captures(none) %5) unnamed_addr #7 {
  %7 = alloca i32, align 4
  %8 = alloca i32, align 4
  %9 = alloca i32, align 4
  call void @llvm.lifetime.start.p0(i64 4, ptr nonnull %7) #72
  call void @llvm.lifetime.start.p0(i64 4, ptr nonnull %8) #72
  call void @llvm.lifetime.start.p0(i64 4, ptr nonnull %9) #72
  %10 = getelementptr inbounds nuw i8, ptr %0, i64 600
  %11 = load ptr, ptr %10, align 8
  %12 = call i32 %11(ptr noundef nonnull %2, ptr noundef nonnull %7, ptr noundef nonnull %9) #72
  %13 = getelementptr inbounds nuw i8, ptr %0, i64 608
  %14 = load ptr, ptr %13, align 8
  %15 = call i32 %14(ptr noundef nonnull %2, ptr noundef nonnull %8, ptr noundef nonnull %9) #72
  %16 = load i32, ptr %7, align 4
  %17 = call i32 @llvm.umin.i32(i32 %16, i32 384000)
  %18 = call i32 @llvm.umax.i32(i32 %17, i32 8000)
  store i32 %18, ptr %7, align 4
  %19 = load i32, ptr %8, align 4
  %20 = call i32 @llvm.umin.i32(i32 %19, i32 384000)
  %21 = call i32 @llvm.umax.i32(i32 %20, i32 8000)
  store i32 %21, ptr %8, align 4
  %22 = getelementptr inbounds nuw i8, ptr %5, i64 516
  %23 = getelementptr inbounds nuw i8, ptr %0, i64 656
  %24 = getelementptr inbounds nuw i8, ptr %5, i64 520
  br label %25

25:                                               ; preds = %6, %ma_context_test_rate_and_add_native_data_format__alsa.exit
  %indvars.iv = phi i64 [ 0, %6 ], [ %indvars.iv.next, %ma_context_test_rate_and_add_native_data_format__alsa.exit ]
  %26 = getelementptr inbounds nuw [14 x i32], ptr @g_maStandardSampleRatePriorities, i64 0, i64 %indvars.iv
  %27 = load i32, ptr %26, align 4
  %28 = load i32, ptr %7, align 4
  %.not35 = icmp ult i32 %27, %28
  %29 = load i32, ptr %8, align 4
  %.not36 = icmp ugt i32 %27, %29
  %or.cond = select i1 %.not35, i1 true, i1 %.not36
  br i1 %or.cond, label %ma_context_test_rate_and_add_native_data_format__alsa.exit, label %30

30:                                               ; preds = %25
  %31 = load i32, ptr %22, align 4
  %32 = icmp ult i32 %31, 64
  br i1 %32, label %33, label %ma_context_test_rate_and_add_native_data_format__alsa.exit

33:                                               ; preds = %30
  %34 = load ptr, ptr %23, align 8
  %35 = call i32 %34(ptr noundef %1, ptr noundef nonnull %2, i32 noundef %27, i32 noundef 0) #72
  %36 = icmp eq i32 %35, 0
  br i1 %36, label %37, label %ma_context_test_rate_and_add_native_data_format__alsa.exit

37:                                               ; preds = %33
  %38 = load i32, ptr %22, align 4
  %39 = zext i32 %38 to i64
  %40 = getelementptr inbounds nuw [64 x %struct.anon.18], ptr %24, i64 0, i64 %39
  store i32 %3, ptr %40, align 8
  %.idx.i = shl nuw nsw i64 %39, 4
  %.offs.i = or disjoint i64 %.idx.i, 4
  %41 = getelementptr inbounds nuw i8, ptr %24, i64 %.offs.i
  store i32 %4, ptr %41, align 4
  %.offs18.i = or disjoint i64 %.idx.i, 8
  %42 = getelementptr inbounds nuw i8, ptr %24, i64 %.offs18.i
  store i32 %27, ptr %42, align 8
  %.offs20.i = or disjoint i64 %.idx.i, 12
  %43 = getelementptr inbounds nuw i8, ptr %24, i64 %.offs20.i
  store i32 0, ptr %43, align 4
  %44 = add i32 %38, 1
  store i32 %44, ptr %22, align 4
  br label %ma_context_test_rate_and_add_native_data_format__alsa.exit

ma_context_test_rate_and_add_native_data_format__alsa.exit: ; preds = %37, %33, %30, %25
  %indvars.iv.next = add nuw nsw i64 %indvars.iv, 1
  %exitcond.not = icmp eq i64 %indvars.iv.next, 14
  br i1 %exitcond.not, label %45, label %25

45:                                               ; preds = %ma_context_test_rate_and_add_native_data_format__alsa.exit
  %46 = load i32, ptr %7, align 4
  br label %48

47:                                               ; preds = %48
  %indvars.iv.next59 = add nuw nsw i64 %indvars.iv58, 1
  %exitcond61.not = icmp eq i64 %indvars.iv.next59, 14
  br i1 %exitcond61.not, label %52, label %48

48:                                               ; preds = %45, %47
  %indvars.iv58 = phi i64 [ 0, %45 ], [ %indvars.iv.next59, %47 ]
  %49 = getelementptr inbounds nuw [14 x i32], ptr @g_maStandardSampleRatePriorities, i64 0, i64 %indvars.iv58
  %50 = load i32, ptr %49, align 4
  %51 = icmp eq i32 %50, %46
  br i1 %51, label %ma_is_standard_sample_rate.exit, label %47

52:                                               ; preds = %47
  %53 = load i32, ptr %22, align 4
  %54 = icmp ult i32 %53, 64
  br i1 %54, label %55, label %ma_is_standard_sample_rate.exit

55:                                               ; preds = %52
  %56 = load ptr, ptr %23, align 8
  %57 = call i32 %56(ptr noundef %1, ptr noundef nonnull %2, i32 noundef %46, i32 noundef 0) #72
  %58 = icmp eq i32 %57, 0
  br i1 %58, label %59, label %ma_is_standard_sample_rate.exit

59:                                               ; preds = %55
  %60 = load i32, ptr %22, align 4
  %61 = zext i32 %60 to i64
  %62 = getelementptr inbounds nuw [64 x %struct.anon.18], ptr %24, i64 0, i64 %61
  store i32 %3, ptr %62, align 8
  %.idx.i40 = shl nuw nsw i64 %61, 4
  %.offs.i41 = or disjoint i64 %.idx.i40, 4
  %63 = getelementptr inbounds nuw i8, ptr %24, i64 %.offs.i41
  store i32 %4, ptr %63, align 4
  %.offs18.i42 = or disjoint i64 %.idx.i40, 8
  %64 = getelementptr inbounds nuw i8, ptr %24, i64 %.offs18.i42
  store i32 %46, ptr %64, align 8
  %.offs20.i43 = or disjoint i64 %.idx.i40, 12
  %65 = getelementptr inbounds nuw i8, ptr %24, i64 %.offs20.i43
  store i32 0, ptr %65, align 4
  %66 = add i32 %60, 1
  store i32 %66, ptr %22, align 4
  br label %ma_is_standard_sample_rate.exit

ma_is_standard_sample_rate.exit:                  ; preds = %48, %59, %55, %52
  %67 = load i32, ptr %8, align 4
  br label %69

68:                                               ; preds = %69
  %indvars.iv.next63 = add nuw nsw i64 %indvars.iv62, 1
  %exitcond65.not = icmp eq i64 %indvars.iv.next63, 14
  br i1 %exitcond65.not, label %73, label %69

69:                                               ; preds = %ma_is_standard_sample_rate.exit, %68
  %indvars.iv62 = phi i64 [ 0, %ma_is_standard_sample_rate.exit ], [ %indvars.iv.next63, %68 ]
  %70 = getelementptr inbounds nuw [14 x i32], ptr @g_maStandardSampleRatePriorities, i64 0, i64 %indvars.iv62
  %71 = load i32, ptr %70, align 4
  %72 = icmp eq i32 %71, %67
  br i1 %72, label %ma_is_standard_sample_rate.exit39, label %68

73:                                               ; preds = %68
  %74 = load i32, ptr %7, align 4
  %.not34 = icmp eq i32 %67, %74
  br i1 %.not34, label %ma_is_standard_sample_rate.exit39, label %75

75:                                               ; preds = %73
  %76 = load i32, ptr %22, align 4
  %77 = icmp ult i32 %76, 64
  br i1 %77, label %78, label %ma_is_standard_sample_rate.exit39

78:                                               ; preds = %75
  %79 = load ptr, ptr %23, align 8
  %80 = call i32 %79(ptr noundef %1, ptr noundef nonnull %2, i32 noundef %67, i32 noundef 0) #72
  %81 = icmp eq i32 %80, 0
  br i1 %81, label %82, label %ma_is_standard_sample_rate.exit39

82:                                               ; preds = %78
  %83 = load i32, ptr %22, align 4
  %84 = zext i32 %83 to i64
  %85 = getelementptr inbounds nuw [64 x %struct.anon.18], ptr %24, i64 0, i64 %84
  store i32 %3, ptr %85, align 8
  %.idx.i45 = shl nuw nsw i64 %84, 4
  %.offs.i46 = or disjoint i64 %.idx.i45, 4
  %86 = getelementptr inbounds nuw i8, ptr %24, i64 %.offs.i46
  store i32 %4, ptr %86, align 4
  %.offs18.i47 = or disjoint i64 %.idx.i45, 8
  %87 = getelementptr inbounds nuw i8, ptr %24, i64 %.offs18.i47
  store i32 %67, ptr %87, align 8
  %.offs20.i48 = or disjoint i64 %.idx.i45, 12
  %88 = getelementptr inbounds nuw i8, ptr %24, i64 %.offs20.i48
  store i32 0, ptr %88, align 4
  %89 = add i32 %83, 1
  store i32 %89, ptr %22, align 4
  br label %ma_is_standard_sample_rate.exit39

ma_is_standard_sample_rate.exit39:                ; preds = %69, %82, %78, %75, %73
  call void @llvm.lifetime.end.p0(i64 4, ptr nonnull %9) #72
  call void @llvm.lifetime.end.p0(i64 4, ptr nonnull %8) #72
  call void @llvm.lifetime.end.p0(i64 4, ptr nonnull %7) #72
  ret void
}